target datalayout = "e-m:e-p270:32:32-p271:32:32-p272:64:64-i64:64-i128:128-f80:128-n8:16:32:64-S128"
target triple = "x86_64-pc-linux-gnu"

%struct.GCcdata = type { %struct.GCRef, i8, i8, i16 }
%struct.GCRef = type { i64 }
%struct.CTState = type { ptr, i32, i32, ptr, ptr, ptr, %struct.CCallback, [128 x i16] }
%struct.CCallback = type { [8 x %union.FPRCBArg], [8 x i64], ptr, ptr, ptr, i32, i32, i32 }
%union.FPRCBArg = type { double }
%struct.GCcdataVar = type { i16, i16, i32 }
%struct.MRef = type { i64 }
%struct.global_State = type { ptr, ptr, %struct.GCState, %struct.GCstr, i8, i8, i8, i8, %struct.StrInternState, i32, %struct.GCRef, %struct.SBuf, %union.TValue, %union.TValue, %struct.Node, %union.TValue, %struct.GCupval, i32, i32, ptr, ptr, ptr, i32, i32, %struct.GCRef, %struct.MRef, %struct.MRef, %struct.PRNGState, [39 x %struct.GCRef] }
%struct.GCState = type { i64, i64, i8, i8, i8, i8, i32, %struct.GCRef, %struct.MRef, %struct.GCRef, %struct.GCRef, %struct.GCRef, %struct.GCRef, i64, i64, i32, i32, %struct.MRef }
%struct.GCstr = type { %struct.GCRef, i8, i8, i8, i8, i32, i32, i32 }
%struct.StrInternState = type { ptr, i32, i32, i32, i8, i8, i8, i8, i64 }
%struct.SBuf = type { ptr, ptr, ptr, %struct.MRef }
%struct.Node = type { %union.TValue, %union.TValue, %struct.MRef }
%union.TValue = type { i64 }
%struct.GCupval = type { %struct.GCRef, i8, i8, i8, i8, %union.anon, %struct.MRef, i32 }
%union.anon = type { %struct.anon.1 }
%struct.anon.1 = type { %struct.GCRef, %struct.GCRef }
%struct.PRNGState = type { [4 x i64] }
%struct.GChead = type { %struct.GCRef, i8, i8, i8, i8, %struct.GCRef, %struct.GCRef, %struct.GCRef }
%struct.CType = type { i32, i32, i16, i16, %struct.GCRef }

; Function Attrs: alwaysinline nounwind uwtable
define internal i32 @ctype_check(ptr noundef %0, i32 noundef %1) #3 {
  %3 = alloca ptr, align 8
  %4 = alloca i32, align 4
  store ptr %0, ptr %3, align 8, !tbaa !4
  store i32 %1, ptr %4, align 4, !tbaa !10
  %5 = load i32, ptr %4, align 4, !tbaa !10
  ret i32 %5
}

; Function Attrs: alwaysinline nounwind uwtable
define internal ptr @ctype_child(ptr noundef %0, ptr noundef %1) #3 {
  %3 = alloca ptr, align 8
  %4 = alloca ptr, align 8
  store ptr %0, ptr %3, align 8, !tbaa !4
  store ptr %1, ptr %4, align 8, !tbaa !60
  %5 = load ptr, ptr %3, align 8, !tbaa !4
  %6 = load ptr, ptr %4, align 8, !tbaa !60
  %7 = getelementptr inbounds nuw %struct.CType, ptr %6, i32 0, i32 0
  %8 = load i32, ptr %7, align 8, !tbaa !61
  %9 = and i32 %8, 65535
  %10 = call ptr @ctype_get(ptr noundef %5, i32 noundef %9)
  ret ptr %10
}

; Function Attrs: alwaysinline nounwind uwtable
define internal ptr @ctype_get(ptr noundef %0, i32 noundef %1) #3 {
  %3 = alloca ptr, align 8
  %4 = alloca i32, align 4
  store ptr %0, ptr %3, align 8, !tbaa !4
  store i32 %1, ptr %4, align 4, !tbaa !10
  %5 = load ptr, ptr %3, align 8, !tbaa !4
  %6 = getelementptr inbounds nuw %struct.CTState, ptr %5, i32 0, i32 0
  %7 = load ptr, ptr %6, align 8, !tbaa !86
  %8 = load ptr, ptr %3, align 8, !tbaa !4
  %9 = load i32, ptr %4, align 4, !tbaa !10
  %10 = call i32 @ctype_check(ptr noundef %8, i32 noundef %9)
  %11 = zext i32 %10 to i64
  %12 = getelementptr inbounds nuw %struct.CType, ptr %7, i64 %11
  ret ptr %12
}

; Function Attrs: alwaysinline nounwind uwtable
define internal void @lj_mem_free(ptr noundef %0, ptr noundef %1, i64 noundef %2) #3 {
  %4 = alloca ptr, align 8
  %5 = alloca ptr, align 8
  %6 = alloca i64, align 8
  store ptr %0, ptr %4, align 8, !tbaa !41
  store ptr %1, ptr %5, align 8, !tbaa !9
  store i64 %2, ptr %6, align 8, !tbaa !32
  %7 = load i64, ptr %6, align 8, !tbaa !32
  %8 = load ptr, ptr %4, align 8, !tbaa !41
  %9 = getelementptr inbounds nuw %struct.global_State, ptr %8, i32 0, i32 2
  %10 = getelementptr inbounds nuw %struct.GCState, ptr %9, i32 0, i32 0
  %11 = load i64, ptr %10, align 8, !tbaa !66
  %12 = sub i64 %11, %7
  store i64 %12, ptr %10, align 8, !tbaa !66
  %13 = load ptr, ptr %4, align 8, !tbaa !41
  %14 = getelementptr inbounds nuw %struct.global_State, ptr %13, i32 0, i32 0
  %15 = load ptr, ptr %14, align 8, !tbaa !67
  %16 = load ptr, ptr %4, align 8, !tbaa !41
  %17 = getelementptr inbounds nuw %struct.global_State, ptr %16, i32 0, i32 1
  %18 = load ptr, ptr %17, align 8, !tbaa !68
  %19 = load ptr, ptr %5, align 8, !tbaa !9
  %20 = load i64, ptr %6, align 8, !tbaa !32
  %21 = call ptr %15(ptr noundef %18, ptr noundef %19, i64 noundef %20, i64 noundef 0)
  ret void
}

; Function Attrs: alwaysinline nounwind uwtable
define internal ptr @ctype_raw(ptr noundef %0, i32 noundef %1) #3 {
  %3 = alloca ptr, align 8
  %4 = alloca i32, align 4
  %5 = alloca ptr, align 8
  store ptr %0, ptr %3, align 8, !tbaa !4
  store i32 %1, ptr %4, align 4, !tbaa !10
  call void @llvm.lifetime.start.p0(i64 8, ptr %5) #6
  %6 = load ptr, ptr %3, align 8, !tbaa !4
  %7 = load i32, ptr %4, align 4, !tbaa !10
  %8 = call ptr @ctype_get(ptr noundef %6, i32 noundef %7)
  store ptr %8, ptr %5, align 8, !tbaa !60
  br label %9

9:                                                ; preds = %15, %2
  %10 = load ptr, ptr %5, align 8, !tbaa !60
  %11 = getelementptr inbounds nuw %struct.CType, ptr %10, i32 0, i32 0
  %12 = load i32, ptr %11, align 8, !tbaa !61
  %13 = lshr i32 %12, 28
  %14 = icmp eq i32 %13, 8
  br i1 %14, label %15, label %19

15:                                               ; preds = %9
  %16 = load ptr, ptr %3, align 8, !tbaa !4
  %17 = load ptr, ptr %5, align 8, !tbaa !60
  %18 = call ptr @ctype_child(ptr noundef %16, ptr noundef %17)
  store ptr %18, ptr %5, align 8, !tbaa !60
  br label %9, !llvm.loop !64

19:                                               ; preds = %9
  %20 = load ptr, ptr %5, align 8, !tbaa !60
  call void @llvm.lifetime.end.p0(i64 8, ptr %5) #6
  ret ptr %20
}

; Function Attrs: nounwind uwtable
define hidden void @lj_cdata_free(ptr noundef %0, ptr noundef %1) #0 {
  %3 = alloca ptr, align 8
  %4 = alloca ptr, align 8
  %5 = alloca ptr, align 8
  %6 = alloca ptr, align 8
  %7 = alloca i32, align 4
  store ptr %0, ptr %3, align 8, !tbaa !41
  store ptr %1, ptr %4, align 8, !tbaa !12
  %8 = load ptr, ptr %4, align 8, !tbaa !12
  %9 = getelementptr inbounds nuw %struct.GCcdata, ptr %8, i32 0, i32 1
  %10 = load i8, ptr %9, align 8, !tbaa !55
  %11 = zext i8 %10 to i32
  %12 = and i32 %11, 16
  %13 = icmp ne i32 %12, 0
  %14 = xor i1 %13, true
  %15 = xor i1 %14, true
  %16 = zext i1 %15 to i32
  %17 = sext i32 %16 to i64
  %18 = call i64 @llvm.expect.i64(i64 %17, i64 0)
  %19 = icmp ne i64 %18, 0
  br i1 %19, label %20, label %81

20:                                               ; preds = %2
  call void @llvm.lifetime.start.p0(i64 8, ptr %5) #6
  %21 = load ptr, ptr %4, align 8, !tbaa !12
  %22 = getelementptr inbounds nuw %struct.GChead, ptr %21, i32 0, i32 1
  %23 = load i8, ptr %22, align 8, !tbaa !54
  %24 = zext i8 %23 to i32
  %25 = and i32 %24, 248
  %26 = load ptr, ptr %3, align 8, !tbaa !41
  %27 = getelementptr inbounds nuw %struct.global_State, ptr %26, i32 0, i32 2
  %28 = getelementptr inbounds nuw %struct.GCState, ptr %27, i32 0, i32 2
  %29 = load i8, ptr %28, align 8, !tbaa !53
  %30 = zext i8 %29 to i32
  %31 = and i32 %30, 3
  %32 = or i32 %25, %31
  %33 = trunc i32 %32 to i8
  %34 = load ptr, ptr %4, align 8, !tbaa !12
  %35 = getelementptr inbounds nuw %struct.GChead, ptr %34, i32 0, i32 1
  store i8 %33, ptr %35, align 8, !tbaa !54
  %36 = load ptr, ptr %4, align 8, !tbaa !12
  %37 = getelementptr inbounds nuw %struct.GChead, ptr %36, i32 0, i32 1
  %38 = load i8, ptr %37, align 8, !tbaa !54
  %39 = zext i8 %38 to i32
  %40 = or i32 %39, 8
  %41 = trunc i32 %40 to i8
  store i8 %41, ptr %37, align 8, !tbaa !54
  %42 = load ptr, ptr %3, align 8, !tbaa !41
  %43 = getelementptr inbounds nuw %struct.global_State, ptr %42, i32 0, i32 2
  %44 = getelementptr inbounds nuw %struct.GCState, ptr %43, i32 0, i32 12
  %45 = getelementptr inbounds nuw %struct.GCRef, ptr %44, i32 0, i32 0
  %46 = load i64, ptr %45, align 8, !tbaa !56
  %47 = inttoptr i64 %46 to ptr
  store ptr %47, ptr %5, align 8, !tbaa !57
  %48 = icmp ne ptr %47, null
  br i1 %48, label %49, label %68

49:                                               ; preds = %20
  %50 = load ptr, ptr %5, align 8, !tbaa !57
  %51 = getelementptr inbounds nuw %struct.GChead, ptr %50, i32 0, i32 0
  %52 = getelementptr inbounds nuw %struct.GCRef, ptr %51, i32 0, i32 0
  %53 = load i64, ptr %52, align 8, !tbaa !54
  %54 = load ptr, ptr %4, align 8, !tbaa !12
  %55 = getelementptr inbounds nuw %struct.GCcdata, ptr %54, i32 0, i32 0
  %56 = getelementptr inbounds nuw %struct.GCRef, ptr %55, i32 0, i32 0
  store i64 %53, ptr %56, align 8, !tbaa !52
  %57 = load ptr, ptr %4, align 8, !tbaa !12
  %58 = ptrtoint ptr %57 to i64
  %59 = load ptr, ptr %5, align 8, !tbaa !57
  %60 = getelementptr inbounds nuw %struct.GChead, ptr %59, i32 0, i32 0
  %61 = getelementptr inbounds nuw %struct.GCRef, ptr %60, i32 0, i32 0
  store i64 %58, ptr %61, align 8, !tbaa !54
  %62 = load ptr, ptr %4, align 8, !tbaa !12
  %63 = ptrtoint ptr %62 to i64
  %64 = load ptr, ptr %3, align 8, !tbaa !41
  %65 = getelementptr inbounds nuw %struct.global_State, ptr %64, i32 0, i32 2
  %66 = getelementptr inbounds nuw %struct.GCState, ptr %65, i32 0, i32 12
  %67 = getelementptr inbounds nuw %struct.GCRef, ptr %66, i32 0, i32 0
  store i64 %63, ptr %67, align 8, !tbaa !56
  br label %80

68:                                               ; preds = %20
  %69 = load ptr, ptr %4, align 8, !tbaa !12
  %70 = ptrtoint ptr %69 to i64
  %71 = load ptr, ptr %4, align 8, !tbaa !12
  %72 = getelementptr inbounds nuw %struct.GCcdata, ptr %71, i32 0, i32 0
  %73 = getelementptr inbounds nuw %struct.GCRef, ptr %72, i32 0, i32 0
  store i64 %70, ptr %73, align 8, !tbaa !52
  %74 = load ptr, ptr %4, align 8, !tbaa !12
  %75 = ptrtoint ptr %74 to i64
  %76 = load ptr, ptr %3, align 8, !tbaa !41
  %77 = getelementptr inbounds nuw %struct.global_State, ptr %76, i32 0, i32 2
  %78 = getelementptr inbounds nuw %struct.GCState, ptr %77, i32 0, i32 12
  %79 = getelementptr inbounds nuw %struct.GCRef, ptr %78, i32 0, i32 0
  store i64 %75, ptr %79, align 8, !tbaa !56
  br label %80

80:                                               ; preds = %68, %49
  call void @llvm.lifetime.end.p0(i64 8, ptr %5) #6
  br label %146

81:                                               ; preds = %2
  %82 = load ptr, ptr %4, align 8, !tbaa !12
  %83 = getelementptr inbounds nuw %struct.GCcdata, ptr %82, i32 0, i32 1
  %84 = load i8, ptr %83, align 8, !tbaa !55
  %85 = zext i8 %84 to i32
  %86 = and i32 %85, 128
  %87 = icmp ne i32 %86, 0
  %88 = xor i1 %87, true
  %89 = xor i1 %88, true
  %90 = xor i1 %89, true
  %91 = zext i1 %90 to i32
  %92 = sext i32 %91 to i64
  %93 = call i64 @llvm.expect.i64(i64 %92, i64 1)
  %94 = icmp ne i64 %93, 0
  br i1 %94, label %95, label %123

95:                                               ; preds = %81
  call void @llvm.lifetime.start.p0(i64 8, ptr %6) #6
  %96 = load ptr, ptr %3, align 8, !tbaa !41
  %97 = getelementptr inbounds nuw %struct.global_State, ptr %96, i32 0, i32 26
  %98 = getelementptr inbounds nuw %struct.MRef, ptr %97, i32 0, i32 0
  %99 = load i64, ptr %98, align 8, !tbaa !59
  %100 = inttoptr i64 %99 to ptr
  %101 = load ptr, ptr %4, align 8, !tbaa !12
  %102 = getelementptr inbounds nuw %struct.GCcdata, ptr %101, i32 0, i32 3
  %103 = load i16, ptr %102, align 2, !tbaa !28
  %104 = zext i16 %103 to i32
  %105 = call ptr @ctype_raw(ptr noundef %100, i32 noundef %104)
  store ptr %105, ptr %6, align 8, !tbaa !60
  call void @llvm.lifetime.start.p0(i64 4, ptr %7) #6
  %106 = load ptr, ptr %6, align 8, !tbaa !60
  %107 = getelementptr inbounds nuw %struct.CType, ptr %106, i32 0, i32 0
  %108 = load i32, ptr %107, align 8, !tbaa !61
  %109 = lshr i32 %108, 28
  %110 = icmp ule i32 %109, 5
  br i1 %110, label %111, label %115

111:                                              ; preds = %95
  %112 = load ptr, ptr %6, align 8, !tbaa !60
  %113 = getelementptr inbounds nuw %struct.CType, ptr %112, i32 0, i32 1
  %114 = load i32, ptr %113, align 4, !tbaa !63
  br label %116

115:                                              ; preds = %95
  br label %116

116:                                              ; preds = %115, %111
  %117 = phi i32 [ %114, %111 ], [ 8, %115 ]
  store i32 %117, ptr %7, align 4, !tbaa !10
  %118 = load ptr, ptr %3, align 8, !tbaa !41
  %119 = load ptr, ptr %4, align 8, !tbaa !12
  %120 = load i32, ptr %7, align 4, !tbaa !10
  %121 = zext i32 %120 to i64
  %122 = add i64 16, %121
  call void @lj_mem_free(ptr noundef %118, ptr noundef %119, i64 noundef %122)
  call void @llvm.lifetime.end.p0(i64 4, ptr %7) #6
  call void @llvm.lifetime.end.p0(i64 8, ptr %6) #6
  br label %145

123:                                              ; preds = %81
  %124 = load ptr, ptr %3, align 8, !tbaa !41
  %125 = load ptr, ptr %4, align 8, !tbaa !12
  %126 = load ptr, ptr %4, align 8, !tbaa !12
  %127 = getelementptr inbounds i8, ptr %126, i64 -8
  %128 = getelementptr inbounds nuw %struct.GCcdataVar, ptr %127, i32 0, i32 0
  %129 = load i16, ptr %128, align 4, !tbaa !33
  %130 = zext i16 %129 to i32
  %131 = sext i32 %130 to i64
  %132 = sub i64 0, %131
  %133 = getelementptr inbounds i8, ptr %125, i64 %132
  %134 = load ptr, ptr %4, align 8, !tbaa !12
  %135 = getelementptr inbounds i8, ptr %134, i64 -8
  %136 = getelementptr inbounds nuw %struct.GCcdataVar, ptr %135, i32 0, i32 2
  %137 = load i32, ptr %136, align 4, !tbaa !36
  %138 = load ptr, ptr %4, align 8, !tbaa !12
  %139 = getelementptr inbounds i8, ptr %138, i64 -8
  %140 = getelementptr inbounds nuw %struct.GCcdataVar, ptr %139, i32 0, i32 1
  %141 = load i16, ptr %140, align 2, !tbaa !35
  %142 = zext i16 %141 to i32
  %143 = add i32 %137, %142
  %144 = zext i32 %143 to i64
  call void @lj_mem_free(ptr noundef %124, ptr noundef %133, i64 noundef %144)
  br label %145

145:                                              ; preds = %123, %116
  br label %146

146:                                              ; preds = %145, %80
  ret void
}