; Function Attrs: nounwind uwtable
define hidden void @lj_cdata_free(ptr noundef captures(none) %0, ptr noundef %1) local_unnamed_addr #0 {
  %3 = getelementptr inbounds nuw i8, ptr %1, i64 8
  %4 = load i8, ptr %3, align 8, !tbaa !45
  %5 = and i8 %4, 16
  %.not = icmp eq i8 %5, 0
  br i1 %.not, label %20, label %6, !prof !46

6:                                                ; preds = %2
  %7 = and i8 %4, -16
  %8 = getelementptr inbounds nuw i8, ptr %0, i64 32
  %9 = load i8, ptr %8, align 8, !tbaa !44
  %10 = and i8 %9, 3
  %11 = or disjoint i8 %7, %10
  %12 = or disjoint i8 %11, 8
  store i8 %12, ptr %3, align 8, !tbaa !47
  %13 = getelementptr inbounds nuw i8, ptr %0, i64 80
  %14 = load i64, ptr %13, align 8, !tbaa !48
  %.not29 = icmp eq i64 %14, 0
  br i1 %.not29, label %18, label %15

15:                                               ; preds = %6
  %16 = inttoptr i64 %14 to ptr
  %17 = load i64, ptr %16, align 8, !tbaa !47
  store i64 %17, ptr %1, align 8, !tbaa !43
  br label %18

18:                                               ; preds = %6, %15
  %.sink30 = phi ptr [ %16, %15 ], [ %1, %6 ]
  %19 = ptrtoint ptr %1 to i64
  store i64 %19, ptr %.sink30, align 8, !tbaa !47
  store i64 %19, ptr %13, align 8, !tbaa !48
  br label %69

20:                                               ; preds = %2
  %.not28 = icmp sgt i8 %4, -1
  br i1 %.not28, label %21, label %49, !prof !46

21:                                               ; preds = %20
  %22 = getelementptr inbounds nuw i8, ptr %0, i64 384
  %23 = load i64, ptr %22, align 8, !tbaa !49
  %24 = inttoptr i64 %23 to ptr
  %25 = getelementptr inbounds nuw i8, ptr %1, i64 10
  %26 = load i16, ptr %25, align 2, !tbaa !22
  %27 = load ptr, ptr %24, align 8, !tbaa !50
  %28 = zext i16 %26 to i64
  br label %29

29:                                               ; preds = %29, %21
  %.pn = phi i64 [ %28, %21 ], [ %33, %29 ]
  %.0.i = getelementptr inbounds nuw %struct.CType, ptr %27, i64 %.pn
  %30 = load i32, ptr %.0.i, align 8, !tbaa !51
  %31 = icmp slt i32 %30, -1879048192
  %32 = and i32 %30, 65535
  %33 = zext nneg i32 %32 to i64
  br i1 %31, label %29, label %ctype_raw.exit, !llvm.loop !53

ctype_raw.exit:                                   ; preds = %29
  %34 = icmp ult i32 %30, 1610612736
  br i1 %34, label %35, label %40

35:                                               ; preds = %ctype_raw.exit
  %36 = getelementptr inbounds nuw i8, ptr %.0.i, i64 4
  %37 = load i32, ptr %36, align 4, !tbaa !55
  %38 = zext i32 %37 to i64
  %39 = add nuw nsw i64 %38, 16
  br label %40

40:                                               ; preds = %ctype_raw.exit, %35
  %41 = phi i64 [ %39, %35 ], [ 24, %ctype_raw.exit ]
  %42 = getelementptr inbounds nuw i8, ptr %0, i64 16
  %43 = load i64, ptr %42, align 8, !tbaa !56
  %44 = sub i64 %43, %41
  store i64 %44, ptr %42, align 8, !tbaa !56
  %45 = load ptr, ptr %0, align 8, !tbaa !57
  %46 = getelementptr inbounds nuw i8, ptr %0, i64 8
  %47 = load ptr, ptr %46, align 8, !tbaa !58
  %48 = tail call ptr %45(ptr noundef %47, ptr noundef %1, i64 noundef range(i64 0, 4294967312) %41, i64 noundef 0) #4
  br label %69

49:                                               ; preds = %20
  %50 = getelementptr inbounds i8, ptr %1, i64 -8
  %51 = load i16, ptr %50, align 4, !tbaa !24
  %52 = zext i16 %51 to i64
  %53 = sub nsw i64 0, %52
  %54 = getelementptr inbounds i8, ptr %1, i64 %53
  %55 = getelementptr inbounds i8, ptr %1, i64 -4
  %56 = load i32, ptr %55, align 4, !tbaa !27
  %57 = getelementptr inbounds i8, ptr %1, i64 -6
  %58 = load i16, ptr %57, align 2, !tbaa !26
  %59 = zext i16 %58 to i32
  %60 = add i32 %56, %59
  %61 = zext i32 %60 to i64
  %62 = getelementptr inbounds nuw i8, ptr %0, i64 16
  %63 = load i64, ptr %62, align 8, !tbaa !56
  %64 = sub i64 %63, %61
  store i64 %64, ptr %62, align 8, !tbaa !56
  %65 = load ptr, ptr %0, align 8, !tbaa !57
  %66 = getelementptr inbounds nuw i8, ptr %0, i64 8
  %67 = load ptr, ptr %66, align 8, !tbaa !58
  %68 = tail call ptr %65(ptr noundef %67, ptr noundef %54, i64 noundef range(i64 0, 4294967312) %61, i64 noundef 0) #4
  br label %69

69:                                               ; preds = %40, %49, %18
  ret void
}